; ModuleID = 'source-C-CXX/4/1037.c'
source_filename = "source-C-CXX/4/1037.c"
target datalayout = "e-m:e-p270:32:32-p271:32:32-p272:64:64-i64:64-f80:128-n8:16:32:64-S128"
target triple = "x86_64-pc-linux-gnu"

@.str = private unnamed_addr constant [4 x i8] c"%lf\00", align 1
@.str.1 = private unnamed_addr constant [6 x i8] c"%s %s\00", align 1
@.str.2 = private unnamed_addr constant [6 x i8] c"error\00", align 1
@.str.3 = private unnamed_addr constant [4 x i8] c"yes\00", align 1
@.str.4 = private unnamed_addr constant [3 x i8] c"no\00", align 1

; Function Attrs: nofree nounwind sspstrong uwtable
define dso_local i32 @main() local_unnamed_addr #0 {
  %1 = alloca double, align 8
  %2 = alloca [501 x i8], align 16
  %3 = alloca [501 x i8], align 16
  %4 = bitcast double* %1 to i8*
  call void @llvm.lifetime.start.p0i8(i64 8, i8* nonnull %4) #4
  %5 = getelementptr inbounds [501 x i8], [501 x i8]* %2, i64 0, i64 0
  call void @llvm.lifetime.start.p0i8(i64 501, i8* nonnull %5) #4
  %6 = getelementptr inbounds [501 x i8], [501 x i8]* %3, i64 0, i64 0
  call void @llvm.lifetime.start.p0i8(i64 501, i8* nonnull %6) #4
  %7 = call i32 (i8*, ...) @__isoc99_scanf(i8* getelementptr inbounds ([4 x i8], [4 x i8]* @.str, i64 0, i64 0), double* nonnull %1)
  %8 = call i32 (i8*, ...) @__isoc99_scanf(i8* getelementptr inbounds ([6 x i8], [6 x i8]* @.str.1, i64 0, i64 0), i8* nonnull %5, i8* nonnull %6)
  %9 = call i64 @strlen(i8* noundef nonnull %5) #5
  %10 = uitofp i64 %9 to double
  %11 = call i64 @strlen(i8* noundef nonnull %6) #5
  %12 = uitofp i64 %11 to double
  %13 = fcmp une double %10, %12
  br i1 %13, label %53, label %14

14:                                               ; preds = %0
  %15 = icmp eq i64 %9, 0
  br i1 %15, label %47, label %16

16:                                               ; preds = %14, %41
  %17 = phi i64 [ %43, %41 ], [ 0, %14 ]
  %18 = phi double [ %42, %41 ], [ 0.000000e+00, %14 ]
  %19 = getelementptr inbounds [501 x i8], [501 x i8]* %2, i64 0, i64 %17
  %20 = load i8, i8* %19, align 1, !tbaa !5
  switch i8 %20, label %53 [
    i8 65, label %21
    i8 84, label %25
    i8 67, label %29
    i8 71, label %33
  ]

21:                                               ; preds = %16
  %22 = getelementptr inbounds [501 x i8], [501 x i8]* %3, i64 0, i64 %17
  %23 = load i8, i8* %22, align 1, !tbaa !5
  %24 = icmp eq i8 %23, 65
  br i1 %24, label %37, label %39

25:                                               ; preds = %16
  %26 = getelementptr inbounds [501 x i8], [501 x i8]* %3, i64 0, i64 %17
  %27 = load i8, i8* %26, align 1, !tbaa !5
  %28 = icmp eq i8 %27, 84
  br i1 %28, label %37, label %39

29:                                               ; preds = %16
  %30 = getelementptr inbounds [501 x i8], [501 x i8]* %3, i64 0, i64 %17
  %31 = load i8, i8* %30, align 1, !tbaa !5
  %32 = icmp eq i8 %31, 67
  br i1 %32, label %37, label %39

33:                                               ; preds = %16
  %34 = getelementptr inbounds [501 x i8], [501 x i8]* %3, i64 0, i64 %17
  %35 = load i8, i8* %34, align 1, !tbaa !5
  %36 = icmp eq i8 %35, 71
  br i1 %36, label %37, label %39

37:                                               ; preds = %33, %29, %25, %21
  %38 = fadd double %18, 1.000000e+00
  br label %41

39:                                               ; preds = %21, %25, %29, %33
  %40 = phi i8 [ %23, %21 ], [ %27, %25 ], [ %31, %29 ], [ %35, %33 ]
  switch i8 %40, label %53 [
    i8 65, label %41
    i8 84, label %41
    i8 67, label %41
    i8 71, label %41
  ]

41:                                               ; preds = %39, %39, %39, %39, %37
  %42 = phi double [ %38, %37 ], [ %18, %39 ], [ %18, %39 ], [ %18, %39 ], [ %18, %39 ]
  %43 = add nuw i64 %17, 1
  %44 = trunc i64 %43 to i32
  %45 = sitofp i32 %44 to double
  %46 = fcmp olt double %45, %10
  br i1 %46, label %16, label %47, !llvm.loop !8

47:                                               ; preds = %41, %14
  %48 = phi double [ 0.000000e+00, %14 ], [ %42, %41 ]
  %49 = fdiv double %48, %10
  %50 = load double, double* %1, align 8, !tbaa !10
  %51 = fcmp ogt double %49, %50
  %52 = select i1 %51, i8* getelementptr inbounds ([4 x i8], [4 x i8]* @.str.3, i64 0, i64 0), i8* getelementptr inbounds ([3 x i8], [3 x i8]* @.str.4, i64 0, i64 0)
  br label %53

53:                                               ; preds = %39, %16, %47, %0
  %54 = phi i8* [ getelementptr inbounds ([6 x i8], [6 x i8]* @.str.2, i64 0, i64 0), %0 ], [ %52, %47 ], [ getelementptr inbounds ([6 x i8], [6 x i8]* @.str.2, i64 0, i64 0), %16 ], [ getelementptr inbounds ([6 x i8], [6 x i8]* @.str.2, i64 0, i64 0), %39 ]
  %55 = call i32 (i8*, ...) @printf(i8* nonnull dereferenceable(1) %54)
  call void @llvm.lifetime.end.p0i8(i64 501, i8* nonnull %6) #4
  call void @llvm.lifetime.end.p0i8(i64 501, i8* nonnull %5) #4
  call void @llvm.lifetime.end.p0i8(i64 8, i8* nonnull %4) #4
  ret i32 0
}

; Function Attrs: argmemonly mustprogress nofree nosync nounwind willreturn
declare void @llvm.lifetime.start.p0i8(i64 immarg, i8* nocapture) #1

; Function Attrs: nofree nounwind
declare noundef i32 @__isoc99_scanf(i8* nocapture noundef readonly, ...) local_unnamed_addr #2

; Function Attrs: argmemonly mustprogress nofree nounwind readonly willreturn
declare i64 @strlen(i8* nocapture) local_unnamed_addr #3

; Function Attrs: nofree nounwind
declare noundef i32 @printf(i8* nocapture noundef readonly, ...) local_unnamed_addr #2

; Function Attrs: argmemonly mustprogress nofree nosync nounwind willreturn
declare void @llvm.lifetime.end.p0i8(i64 immarg, i8* nocapture) #1


!llvm.module.flags = !{!0, !1, !2, !3}
!llvm.ident = !{!4}

!0 = !{i32 1, !"wchar_size", i32 4}
!1 = !{i32 7, !"PIC Level", i32 2}
!2 = !{i32 7, !"PIE Level", i32 2}
!3 = !{i32 7, !"uwtable", i32 1}
!4 = !{!"clang version 13.0.0"}
!5 = !{!6, !6, i64 0}
!6 = !{!"omnipotent char", !7, i64 0}
!7 = !{!"Simple C/C++ TBAA"}
!8 = distinct !{!8, !9}
!9 = !{!"llvm.loop.mustprogress"}
!10 = !{!11, !11, i64 0}
!11 = !{!"double", !6, i64 0}
